target datalayout = "e-m:e-p270:32:32-p271:32:32-p272:64:64-i64:64-i128:128-f80:128-n8:16:32:64-S128"
target triple = "x86_64-pc-linux-gnu"

%"class.std::basic_ostream" = type { ptr, %"class.std::basic_ios" }
%"class.std::basic_ios" = type { %"class.std::ios_base", ptr, i8, i8, ptr, ptr, ptr, ptr }
%"class.std::ios_base" = type { ptr, i64, i64, i32, i32, i32, ptr, %"struct.std::ios_base::_Words", [8 x %"struct.std::ios_base::_Words"], i32, ptr, %"class.std::locale" }
%"struct.std::ios_base::_Words" = type { ptr, i64 }
%"class.std::locale" = type { ptr }
%"class.pxrInternal_v0_24__pxrReserved__::TfErrorMark" = type { i64 }
%"class.pxrInternal_v0_24__pxrReserved__::TfCallContext" = type <{ ptr, ptr, i64, ptr, i8, [7 x i8] }>
%"class.pxrInternal_v0_24__pxrReserved__::TfDiagnosticMgr" = type <{ ptr, %"class.pxrInternal_v0_24__pxrReserved__::TfWeakBase", %"class.tbb::detail::d1::enumerable_thread_specific", %"class.std::vector.41", %"class.tbb::detail::d1::spin_rw_mutex", %"struct.std::atomic.33", %"class.tbb::detail::d1::enumerable_thread_specific.48", %"class.tbb::detail::d1::enumerable_thread_specific.57", %"class.tbb::detail::d1::enumerable_thread_specific.66", i8, [7 x i8] }>
%"class.pxrInternal_v0_24__pxrReserved__::TfWeakBase" = type { %"struct.std::atomic.29" }
%"struct.std::atomic.29" = type { %"struct.std::__atomic_base.30" }
%"struct.std::__atomic_base.30" = type { ptr }
%"class.tbb::detail::d1::enumerable_thread_specific" = type { %"class.tbb::detail::d1::ets_base", ptr, %"class.tbb::detail::d1::concurrent_vector" }
%"class.tbb::detail::d1::ets_base" = type { ptr, %"struct.std::atomic.31", %"struct.std::atomic.33" }
%"struct.std::atomic.31" = type { %"struct.std::__atomic_base.32" }
%"struct.std::__atomic_base.32" = type { ptr }
%"class.tbb::detail::d1::concurrent_vector" = type { %"class.tbb::detail::d1::segment_table.base", [7 x i8] }
%"class.tbb::detail::d1::segment_table.base" = type <{ ptr, [8 x i8], %"struct.std::atomic.35", [3 x %"struct.std::atomic.37"], %"struct.std::atomic.33", %"struct.std::atomic.33", %"struct.std::atomic.39" }>
%"struct.std::atomic.35" = type { %"struct.std::__atomic_base.36" }
%"struct.std::__atomic_base.36" = type { ptr }
%"struct.std::atomic.37" = type { %"struct.std::__atomic_base.38" }
%"struct.std::__atomic_base.38" = type { ptr }
%"struct.std::atomic.39" = type { %"struct.std::__atomic_base.40" }
%"struct.std::__atomic_base.40" = type { i8 }
%"class.std::vector.41" = type { %"struct.std::_Vector_base.42" }
%"struct.std::_Vector_base.42" = type { %"struct.std::_Vector_base<pxrInternal_v0_24__pxrReserved__::TfDiagnosticMgr::Delegate *, std::allocator<pxrInternal_v0_24__pxrReserved__::TfDiagnosticMgr::Delegate *>>::_Vector_impl" }
%"struct.std::_Vector_base<pxrInternal_v0_24__pxrReserved__::TfDiagnosticMgr::Delegate *, std::allocator<pxrInternal_v0_24__pxrReserved__::TfDiagnosticMgr::Delegate *>>::_Vector_impl" = type { %"struct.std::_Vector_base<pxrInternal_v0_24__pxrReserved__::TfDiagnosticMgr::Delegate *, std::allocator<pxrInternal_v0_24__pxrReserved__::TfDiagnosticMgr::Delegate *>>::_Vector_impl_data" }
%"struct.std::_Vector_base<pxrInternal_v0_24__pxrReserved__::TfDiagnosticMgr::Delegate *, std::allocator<pxrInternal_v0_24__pxrReserved__::TfDiagnosticMgr::Delegate *>>::_Vector_impl_data" = type { ptr, ptr, ptr }
%"class.tbb::detail::d1::spin_rw_mutex" = type { %"struct.std::atomic.46" }
%"struct.std::atomic.46" = type { %"struct.std::__atomic_base.47" }
%"struct.std::__atomic_base.47" = type { i64 }
%"struct.std::atomic.33" = type { %"struct.std::__atomic_base.34" }
%"struct.std::__atomic_base.34" = type { i64 }
%"class.tbb::detail::d1::enumerable_thread_specific.48" = type { %"class.tbb::detail::d1::ets_base", ptr, %"class.tbb::detail::d1::concurrent_vector.49" }
%"class.tbb::detail::d1::concurrent_vector.49" = type { %"class.tbb::detail::d1::segment_table.base.55", [7 x i8] }
%"class.tbb::detail::d1::segment_table.base.55" = type <{ ptr, [8 x i8], %"struct.std::atomic.51", [3 x %"struct.std::atomic.53"], %"struct.std::atomic.33", %"struct.std::atomic.33", %"struct.std::atomic.39" }>
%"struct.std::atomic.51" = type { %"struct.std::__atomic_base.52" }
%"struct.std::__atomic_base.52" = type { ptr }
%"struct.std::atomic.53" = type { %"struct.std::__atomic_base.54" }
%"struct.std::__atomic_base.54" = type { ptr }
%"class.tbb::detail::d1::enumerable_thread_specific.57" = type { %"class.tbb::detail::d1::ets_base", ptr, %"class.tbb::detail::d1::concurrent_vector.58" }
%"class.tbb::detail::d1::concurrent_vector.58" = type { %"class.tbb::detail::d1::segment_table.base.64", [7 x i8] }
%"class.tbb::detail::d1::segment_table.base.64" = type <{ ptr, [8 x i8], %"struct.std::atomic.60", [3 x %"struct.std::atomic.62"], %"struct.std::atomic.33", %"struct.std::atomic.33", %"struct.std::atomic.39" }>
%"struct.std::atomic.60" = type { %"struct.std::__atomic_base.61" }
%"struct.std::__atomic_base.61" = type { ptr }
%"struct.std::atomic.62" = type { %"struct.std::__atomic_base.63" }
%"struct.std::__atomic_base.63" = type { ptr }
%"class.tbb::detail::d1::enumerable_thread_specific.66" = type { %"class.tbb::detail::d1::ets_base.base", ptr, %"class.tbb::detail::d1::concurrent_vector.68" }
%"class.tbb::detail::d1::ets_base.base" = type <{ %"class.tbb::detail::d1::ets_base", i32 }>
%"class.tbb::detail::d1::concurrent_vector.68" = type { %"class.tbb::detail::d1::segment_table.base.74", [7 x i8] }
%"class.tbb::detail::d1::segment_table.base.74" = type <{ ptr, [8 x i8], %"struct.std::atomic.70", [3 x %"struct.std::atomic.72"], %"struct.std::atomic.33", %"struct.std::atomic.33", %"struct.std::atomic.39" }>
%"struct.std::atomic.70" = type { %"struct.std::__atomic_base.71" }
%"struct.std::__atomic_base.71" = type { ptr }
%"struct.std::atomic.72" = type { %"struct.std::__atomic_base.73" }
%"struct.std::__atomic_base.73" = type { ptr }

@_ZSt4cout = external global %"class.std::basic_ostream", align 8
@.str.10 = private unnamed_addr constant [148 x i8] c"generated/home/dtcxzyw/WorkSpace/Projects/compilers/llvm-opt-benchmark/bench/openusd/OpenUSD/pxr/imaging/hd/testenv/testHdExtCompDependencySort.cpp\00", align 1
@__func__.main = private unnamed_addr constant [5 x i8] c"main\00", align 1
@__PRETTY_FUNCTION__.main = private unnamed_addr constant [11 x i8] c"int main()\00", align 1
@.str.11 = private unnamed_addr constant [15 x i8] c"mark.IsClean()\00", align 1
@.str.12 = private unnamed_addr constant [3 x i8] c"OK\00", align 1
@.str.13 = private unnamed_addr constant [7 x i8] c"FAILED\00", align 1

; Function Attrs: mustprogress nounwind uwtable
define linkonce_odr dso_local noundef i32 @_ZStanSt12memory_orderSt23__memory_order_modifier(i32 noundef %0, i32 noundef %1) #5 comdat {
  %3 = alloca i32, align 4
  %4 = alloca i32, align 4
  store i32 %0, ptr %3, align 4
  store i32 %1, ptr %4, align 4
  %5 = load i32, ptr %3, align 4
  %6 = load i32, ptr %4, align 4
  %7 = and i32 %5, %6
  ret i32 %7
}

; Function Attrs: mustprogress nounwind uwtable
define linkonce_odr dso_local noundef i64 @_ZNKSt13__atomic_baseImEcvmEv(ptr noundef nonnull align 8 dereferenceable(8) %0) #5 comdat align 2 {
  %2 = alloca ptr, align 8
  %3 = alloca i32, align 4
  %4 = alloca i32, align 4
  %5 = alloca i64, align 8
  %6 = alloca ptr, align 8
  store ptr %0, ptr %6, align 8
  %7 = load ptr, ptr %6, align 8
  store ptr %7, ptr %2, align 8
  store i32 5, ptr %3, align 4
  %8 = load ptr, ptr %2, align 8
  %9 = load i32, ptr %3, align 4
  %10 = call noundef i32 @_ZStanSt12memory_orderSt23__memory_order_modifier(i32 noundef %9, i32 noundef 65535)
  store i32 %10, ptr %4, align 4
  %11 = load i32, ptr %3, align 4
  switch i32 %11, label %12 [
    i32 1, label %14
    i32 2, label %14
    i32 5, label %16
  ]

12:                                               ; preds = %1
  %13 = load atomic i64, ptr %8 monotonic, align 8
  store i64 %13, ptr %5, align 8
  br label %18

14:                                               ; preds = %1, %1
  %15 = load atomic i64, ptr %8 acquire, align 8
  store i64 %15, ptr %5, align 8
  br label %18

16:                                               ; preds = %1
  %17 = load atomic i64, ptr %8 seq_cst, align 8
  store i64 %17, ptr %5, align 8
  br label %18

18:                                               ; preds = %16, %14, %12
  %19 = load i64, ptr %5, align 8
  ret i64 %19
}

; Function Attrs: mustprogress uwtable
define linkonce_odr dso_local noundef nonnull align 8 dereferenceable(481) ptr @_ZN32pxrInternal_v0_24__pxrReserved__15TfDiagnosticMgr11GetInstanceEv() #4 comdat align 2 {
  %1 = call noundef nonnull align 8 dereferenceable(481) ptr @_ZN32pxrInternal_v0_24__pxrReserved__11TfSingletonINS_15TfDiagnosticMgrEE11GetInstanceEv()
  ret ptr %1
}

; Function Attrs: mustprogress nounwind uwtable
define linkonce_odr dso_local noundef ptr @_ZN32pxrInternal_v0_24__pxrReserved__21Tf_VerifyStringFormatEv() #5 comdat {
  ret ptr null
}

; Function Attrs: mustprogress nounwind uwtable
define linkonce_odr dso_local void @_ZN32pxrInternal_v0_24__pxrReserved__13TfCallContextC2EPKcS2_mS2_(ptr noundef nonnull align 8 dereferenceable(33) %0, ptr noundef %1, ptr noundef %2, i64 noundef %3, ptr noundef %4) unnamed_addr #5 comdat align 2 {
  %6 = alloca ptr, align 8
  %7 = alloca ptr, align 8
  %8 = alloca ptr, align 8
  %9 = alloca i64, align 8
  %10 = alloca ptr, align 8
  store ptr %0, ptr %6, align 8
  store ptr %1, ptr %7, align 8
  store ptr %2, ptr %8, align 8
  store i64 %3, ptr %9, align 8
  store ptr %4, ptr %10, align 8
  %11 = load ptr, ptr %6, align 8
  %12 = getelementptr inbounds nuw %"class.pxrInternal_v0_24__pxrReserved__::TfCallContext", ptr %11, i32 0, i32 0
  %13 = load ptr, ptr %7, align 8
  store ptr %13, ptr %12, align 8
  %14 = getelementptr inbounds nuw %"class.pxrInternal_v0_24__pxrReserved__::TfCallContext", ptr %11, i32 0, i32 1
  %15 = load ptr, ptr %8, align 8
  store ptr %15, ptr %14, align 8
  %16 = getelementptr inbounds nuw %"class.pxrInternal_v0_24__pxrReserved__::TfCallContext", ptr %11, i32 0, i32 2
  %17 = load i64, ptr %9, align 8
  store i64 %17, ptr %16, align 8
  %18 = getelementptr inbounds nuw %"class.pxrInternal_v0_24__pxrReserved__::TfCallContext", ptr %11, i32 0, i32 3
  %19 = load ptr, ptr %10, align 8
  store ptr %19, ptr %18, align 8
  %20 = getelementptr inbounds nuw %"class.pxrInternal_v0_24__pxrReserved__::TfCallContext", ptr %11, i32 0, i32 4
  store i8 0, ptr %20, align 8
  ret void
}

; Function Attrs: mustprogress uwtable
define linkonce_odr dso_local noundef zeroext i1 @_ZNK32pxrInternal_v0_24__pxrReserved__11TfErrorMark7IsCleanEv(ptr noundef nonnull align 8 dereferenceable(8) %0) #4 comdat align 2 {
  %2 = alloca ptr, align 8
  %3 = alloca ptr, align 8
  store ptr %0, ptr %2, align 8
  %4 = load ptr, ptr %2, align 8
  %5 = call noundef nonnull align 8 dereferenceable(481) ptr @_ZN32pxrInternal_v0_24__pxrReserved__15TfDiagnosticMgr11GetInstanceEv()
  store ptr %5, ptr %3, align 8
  %6 = getelementptr inbounds nuw %"class.pxrInternal_v0_24__pxrReserved__::TfErrorMark", ptr %4, i32 0, i32 0
  %7 = load i64, ptr %6, align 8
  %8 = load ptr, ptr %3, align 8
  %9 = getelementptr inbounds nuw %"class.pxrInternal_v0_24__pxrReserved__::TfDiagnosticMgr", ptr %8, i32 0, i32 5
  %10 = call noundef i64 @_ZNKSt13__atomic_baseImEcvmEv(ptr noundef nonnull align 8 dereferenceable(8) %9) #3
  %11 = icmp uge i64 %7, %10
  br i1 %11, label %15, label %12

12:                                               ; preds = %1
  %13 = load ptr, ptr %3, align 8
  %14 = call noundef zeroext i1 @_ZNK32pxrInternal_v0_24__pxrReserved__11TfErrorMark12_IsCleanImplERNS_15TfDiagnosticMgrE(ptr noundef nonnull align 8 dereferenceable(8) %4, ptr noundef nonnull align 8 dereferenceable(481) %13)
  br label %15

15:                                               ; preds = %12, %1
  %16 = phi i1 [ true, %1 ], [ %14, %12 ]
  ret i1 %16
}

; Function Attrs: mustprogress norecurse uwtable
define dso_local noundef i32 @main() #8 personality ptr @__gxx_personality_v0 {
  %1 = alloca i32, align 4
  %2 = alloca %"class.pxrInternal_v0_24__pxrReserved__::TfErrorMark", align 8
  %3 = alloca i8, align 1
  %4 = alloca ptr, align 8
  %5 = alloca i32, align 4
  %6 = alloca %"class.pxrInternal_v0_24__pxrReserved__::TfCallContext", align 8
  %7 = alloca i32, align 4
  store i32 0, ptr %1, align 4
  call void @_ZN32pxrInternal_v0_24__pxrReserved__11TfErrorMarkC1Ev(ptr noundef nonnull align 8 dereferenceable(8) %2)
  %8 = invoke noundef zeroext i1 @_Z25TestLinearChainDependencyv()
          to label %9 unwind label %39

9:                                                ; preds = %0
  br i1 %8, label %10, label %16

10:                                               ; preds = %9
  %11 = invoke noundef zeroext i1 @_Z23TestTreeChainDependencyv()
          to label %12 unwind label %39

12:                                               ; preds = %10
  br i1 %11, label %13, label %16

13:                                               ; preds = %12
  %14 = invoke noundef zeroext i1 @_Z19TestCycleDependencyv()
          to label %15 unwind label %39

15:                                               ; preds = %13
  br label %16

16:                                               ; preds = %15, %12, %9
  %17 = phi i1 [ false, %12 ], [ false, %9 ], [ %14, %15 ]
  %18 = zext i1 %17 to i8
  store i8 %18, ptr %3, align 1
  %19 = invoke noundef zeroext i1 @_ZNK32pxrInternal_v0_24__pxrReserved__11TfErrorMark7IsCleanEv(ptr noundef nonnull align 8 dereferenceable(8) %2)
          to label %20 unwind label %39

20:                                               ; preds = %16
  br i1 %19, label %21, label %22

21:                                               ; preds = %20
  br label %28

22:                                               ; preds = %20
  invoke void @_ZN32pxrInternal_v0_24__pxrReserved__13TfCallContextC2EPKcS2_mS2_(ptr noundef nonnull align 8 dereferenceable(33) %6, ptr noundef @.str.10, ptr noundef @__func__.main, i64 noundef 156, ptr noundef @__PRETTY_FUNCTION__.main)
          to label %23 unwind label %39

23:                                               ; preds = %22
  %24 = invoke noundef ptr @_ZN32pxrInternal_v0_24__pxrReserved__21Tf_VerifyStringFormatEv()
          to label %25 unwind label %39

25:                                               ; preds = %23
  %26 = invoke noundef zeroext i1 @_ZN32pxrInternal_v0_24__pxrReserved__21Tf_FailedVerifyHelperERKNS_13TfCallContextEPKcS4_(ptr noundef nonnull align 8 dereferenceable(33) %6, ptr noundef @.str.11, ptr noundef %24)
          to label %27 unwind label %39

27:                                               ; preds = %25
  br label %28

28:                                               ; preds = %27, %21
  %29 = load i8, ptr %3, align 1
  %30 = trunc i8 %29 to i1
  br i1 %30, label %31, label %43

31:                                               ; preds = %28
  %32 = invoke noundef zeroext i1 @_ZNK32pxrInternal_v0_24__pxrReserved__11TfErrorMark7IsCleanEv(ptr noundef nonnull align 8 dereferenceable(8) %2)
          to label %33 unwind label %39

33:                                               ; preds = %31
  br i1 %32, label %34, label %43

34:                                               ; preds = %33
  %35 = invoke noundef nonnull align 8 dereferenceable(8) ptr @_ZStlsISt11char_traitsIcEERSt13basic_ostreamIcT_ES5_PKc(ptr noundef nonnull align 8 dereferenceable(8) @_ZSt4cout, ptr noundef @.str.12)
          to label %36 unwind label %39

36:                                               ; preds = %34
  %37 = invoke noundef nonnull align 8 dereferenceable(8) ptr @_ZNSolsEPFRSoS_E(ptr noundef nonnull align 8 dereferenceable(8) %35, ptr noundef @_ZSt4endlIcSt11char_traitsIcEERSt13basic_ostreamIT_T0_ES6_)
          to label %38 unwind label %39

38:                                               ; preds = %36
  store i32 0, ptr %1, align 4
  store i32 1, ptr %7, align 4
  br label %48

39:                                               ; preds = %45, %43, %36, %34, %31, %25, %23, %22, %16, %13, %10, %0
  %40 = landingpad { ptr, i32 }
          cleanup
  %41 = extractvalue { ptr, i32 } %40, 0
  store ptr %41, ptr %4, align 8
  %42 = extractvalue { ptr, i32 } %40, 1
  store i32 %42, ptr %5, align 4
  call void @_ZN32pxrInternal_v0_24__pxrReserved__11TfErrorMarkD1Ev(ptr noundef nonnull align 8 dereferenceable(8) %2) #3
  br label %50

43:                                               ; preds = %33, %28
  %44 = invoke noundef nonnull align 8 dereferenceable(8) ptr @_ZStlsISt11char_traitsIcEERSt13basic_ostreamIcT_ES5_PKc(ptr noundef nonnull align 8 dereferenceable(8) @_ZSt4cout, ptr noundef @.str.13)
          to label %45 unwind label %39

45:                                               ; preds = %43
  %46 = invoke noundef nonnull align 8 dereferenceable(8) ptr @_ZNSolsEPFRSoS_E(ptr noundef nonnull align 8 dereferenceable(8) %44, ptr noundef @_ZSt4endlIcSt11char_traitsIcEERSt13basic_ostreamIT_T0_ES6_)
          to label %47 unwind label %39

47:                                               ; preds = %45
  store i32 1, ptr %1, align 4
  store i32 1, ptr %7, align 4
  br label %48

48:                                               ; preds = %47, %38
  call void @_ZN32pxrInternal_v0_24__pxrReserved__11TfErrorMarkD1Ev(ptr noundef nonnull align 8 dereferenceable(8) %2) #3
  %49 = load i32, ptr %1, align 4
  ret i32 %49

50:                                               ; preds = %39
  %51 = load ptr, ptr %4, align 8
  %52 = load i32, ptr %5, align 4
  %53 = insertvalue { ptr, i32 } poison, ptr %51, 0
  %54 = insertvalue { ptr, i32 } %53, i32 %52, 1
  resume { ptr, i32 } %54
}