; Function Attrs: mustprogress norecurse uwtable
define dso_local noundef range(i32 0, 2) i32 @main() local_unnamed_addr #8 personality ptr @__gxx_personality_v0 {
  %1 = alloca %"class.pxrInternal_v0_24__pxrReserved__::TfErrorMark", align 8
  %2 = alloca %"class.pxrInternal_v0_24__pxrReserved__::TfCallContext", align 8
  call void @_ZN32pxrInternal_v0_24__pxrReserved__11TfErrorMarkC1Ev(ptr noundef nonnull align 8 dereferenceable(8) %1)
  %3 = invoke noundef zeroext i1 @_Z25TestLinearChainDependencyv()
          to label %4 unwind label %34

4:                                                ; preds = %0
  br i1 %3, label %5, label %10

5:                                                ; preds = %4
  %6 = invoke noundef zeroext i1 @_Z23TestTreeChainDependencyv()
          to label %7 unwind label %34

7:                                                ; preds = %5
  br i1 %6, label %8, label %10

8:                                                ; preds = %7
  %9 = invoke noundef zeroext i1 @_Z19TestCycleDependencyv()
          to label %10 unwind label %34

10:                                               ; preds = %8, %7, %4
  %11 = phi i1 [ false, %7 ], [ false, %4 ], [ %9, %8 ]
  %12 = invoke noundef nonnull align 8 dereferenceable(481) ptr @_ZN32pxrInternal_v0_24__pxrReserved__11TfSingletonINS_15TfDiagnosticMgrEE11GetInstanceEv()
          to label %.noexc unwind label %34

.noexc:                                           ; preds = %10
  %13 = load i64, ptr %1, align 8
  %14 = getelementptr inbounds nuw i8, ptr %12, i64 152
  %15 = load atomic i64, ptr %14 seq_cst, align 8
  %.not.i = icmp ult i64 %13, %15
  br i1 %.not.i, label %16, label %_ZNK32pxrInternal_v0_24__pxrReserved__11TfErrorMark7IsCleanEv.exit.thread

16:                                               ; preds = %.noexc
  %17 = invoke noundef zeroext i1 @_ZNK32pxrInternal_v0_24__pxrReserved__11TfErrorMark12_IsCleanImplERNS_15TfDiagnosticMgrE(ptr noundef nonnull align 8 dereferenceable(8) %1, ptr noundef nonnull align 8 dereferenceable(481) %12)
          to label %_ZNK32pxrInternal_v0_24__pxrReserved__11TfErrorMark7IsCleanEv.exit unwind label %34

_ZNK32pxrInternal_v0_24__pxrReserved__11TfErrorMark7IsCleanEv.exit: ; preds = %16
  br i1 %17, label %_ZNK32pxrInternal_v0_24__pxrReserved__11TfErrorMark7IsCleanEv.exit.thread, label %18

18:                                               ; preds = %_ZNK32pxrInternal_v0_24__pxrReserved__11TfErrorMark7IsCleanEv.exit
  store ptr @.str.10, ptr %2, align 8
  %19 = getelementptr inbounds nuw i8, ptr %2, i64 8
  store ptr @__func__.main, ptr %19, align 8
  %20 = getelementptr inbounds nuw i8, ptr %2, i64 16
  store i64 156, ptr %20, align 8
  %21 = getelementptr inbounds nuw i8, ptr %2, i64 24
  store ptr @__PRETTY_FUNCTION__.main, ptr %21, align 8
  %22 = getelementptr inbounds nuw i8, ptr %2, i64 32
  store i8 0, ptr %22, align 8
  %23 = invoke noundef zeroext i1 @_ZN32pxrInternal_v0_24__pxrReserved__21Tf_FailedVerifyHelperERKNS_13TfCallContextEPKcS4_(ptr noundef nonnull align 8 dereferenceable(33) %2, ptr noundef nonnull @.str.11, ptr noundef null)
          to label %_ZNK32pxrInternal_v0_24__pxrReserved__11TfErrorMark7IsCleanEv.exit.thread unwind label %34

_ZNK32pxrInternal_v0_24__pxrReserved__11TfErrorMark7IsCleanEv.exit.thread: ; preds = %.noexc, %18, %_ZNK32pxrInternal_v0_24__pxrReserved__11TfErrorMark7IsCleanEv.exit
  br i1 %11, label %24, label %36

24:                                               ; preds = %_ZNK32pxrInternal_v0_24__pxrReserved__11TfErrorMark7IsCleanEv.exit.thread
  %25 = invoke noundef nonnull align 8 dereferenceable(481) ptr @_ZN32pxrInternal_v0_24__pxrReserved__11TfSingletonINS_15TfDiagnosticMgrEE11GetInstanceEv()
          to label %.noexc5 unwind label %34

.noexc5:                                          ; preds = %24
  %26 = load i64, ptr %1, align 8
  %27 = getelementptr inbounds nuw i8, ptr %25, i64 152
  %28 = load atomic i64, ptr %27 seq_cst, align 8
  %.not.i4 = icmp ult i64 %26, %28
  br i1 %.not.i4, label %29, label %_ZNK32pxrInternal_v0_24__pxrReserved__11TfErrorMark7IsCleanEv.exit7.thread

29:                                               ; preds = %.noexc5
  %30 = invoke noundef zeroext i1 @_ZNK32pxrInternal_v0_24__pxrReserved__11TfErrorMark12_IsCleanImplERNS_15TfDiagnosticMgrE(ptr noundef nonnull align 8 dereferenceable(8) %1, ptr noundef nonnull align 8 dereferenceable(481) %25)
          to label %_ZNK32pxrInternal_v0_24__pxrReserved__11TfErrorMark7IsCleanEv.exit7 unwind label %34

_ZNK32pxrInternal_v0_24__pxrReserved__11TfErrorMark7IsCleanEv.exit7: ; preds = %29
  br i1 %30, label %_ZNK32pxrInternal_v0_24__pxrReserved__11TfErrorMark7IsCleanEv.exit7.thread, label %36

_ZNK32pxrInternal_v0_24__pxrReserved__11TfErrorMark7IsCleanEv.exit7.thread: ; preds = %.noexc5, %_ZNK32pxrInternal_v0_24__pxrReserved__11TfErrorMark7IsCleanEv.exit7
  %31 = invoke noundef nonnull align 8 dereferenceable(8) ptr @_ZStlsISt11char_traitsIcEERSt13basic_ostreamIcT_ES5_PKc(ptr noundef nonnull align 8 dereferenceable(8) @_ZSt4cout, ptr noundef nonnull @.str.12)
          to label %32 unwind label %34

32:                                               ; preds = %_ZNK32pxrInternal_v0_24__pxrReserved__11TfErrorMark7IsCleanEv.exit7.thread
  %33 = invoke noundef nonnull align 8 dereferenceable(8) ptr @_ZNSolsEPFRSoS_E(ptr noundef nonnull align 8 dereferenceable(8) %31, ptr noundef nonnull @_ZSt4endlIcSt11char_traitsIcEERSt13basic_ostreamIT_T0_ES6_)
          to label %40 unwind label %34

34:                                               ; preds = %29, %24, %16, %10, %38, %36, %32, %_ZNK32pxrInternal_v0_24__pxrReserved__11TfErrorMark7IsCleanEv.exit7.thread, %18, %8, %5, %0
  %35 = landingpad { ptr, i32 }
          cleanup
  call void @_ZN32pxrInternal_v0_24__pxrReserved__11TfErrorMarkD1Ev(ptr noundef nonnull align 8 dereferenceable(8) %1) #18
  resume { ptr, i32 } %35

36:                                               ; preds = %_ZNK32pxrInternal_v0_24__pxrReserved__11TfErrorMark7IsCleanEv.exit7, %_ZNK32pxrInternal_v0_24__pxrReserved__11TfErrorMark7IsCleanEv.exit.thread
  %37 = invoke noundef nonnull align 8 dereferenceable(8) ptr @_ZStlsISt11char_traitsIcEERSt13basic_ostreamIcT_ES5_PKc(ptr noundef nonnull align 8 dereferenceable(8) @_ZSt4cout, ptr noundef nonnull @.str.13)
          to label %38 unwind label %34

38:                                               ; preds = %36
  %39 = invoke noundef nonnull align 8 dereferenceable(8) ptr @_ZNSolsEPFRSoS_E(ptr noundef nonnull align 8 dereferenceable(8) %37, ptr noundef nonnull @_ZSt4endlIcSt11char_traitsIcEERSt13basic_ostreamIT_T0_ES6_)
          to label %40 unwind label %34

40:                                               ; preds = %38, %32
  %.0 = phi i32 [ 0, %32 ], [ 1, %38 ]
  call void @_ZN32pxrInternal_v0_24__pxrReserved__11TfErrorMarkD1Ev(ptr noundef nonnull align 8 dereferenceable(8) %1) #18
  ret i32 %.0
}